; Function Attrs: mustprogress uwtable
define internal { ptr, ptr } @"_ZN5boost7context6detail11fiber_ontopINS0_5fiberEZNS_6fibers7context6resumeERSt11unique_lockINS4_6detail13spinlock_ttasEEE3$_0EENS1_10transfer_tESC_"(ptr %0, ptr nocapture readonly %1) #12 personality ptr @__gxx_personality_v0 {
  %3 = alloca %"class.boost::context::fiber", align 8
  %.sroa.07.0.copyload = load ptr, ptr %1, align 8, !tbaa !13
  %.sroa.5.0..sroa_idx = getelementptr inbounds i8, ptr %1, i64 8
  %.sroa.5.0.copyload = load ptr, ptr %.sroa.5.0..sroa_idx, align 8, !tbaa !13
  call void @llvm.lifetime.start.p0(i64 8, ptr nonnull %3) #8
  store ptr %0, ptr %3, align 8, !tbaa !74
  %4 = getelementptr inbounds nuw i8, ptr %.sroa.07.0.copyload, i64 208
  %.not.i.i = icmp eq ptr %4, %3
  br i1 %.not.i.i, label %_ZN5boost7context5fiberaSEOS1_.exit.i, label %5, !prof !179

5:                                                ; preds = %2
  store ptr null, ptr %3, align 8, !tbaa !13, !noalias !180
  %6 = load ptr, ptr %4, align 8, !tbaa !13, !noalias !180
  store ptr %0, ptr %4, align 8, !tbaa !13, !noalias !180
  %.not.i.i.i = icmp eq ptr %6, null
  br i1 %.not.i.i.i, label %_ZN5boost7context5fiberaSEOS1_.exit.i, label %7, !prof !55

7:                                                ; preds = %5
  %8 = invoke { ptr, ptr } @ontop_fcontext(ptr noundef nonnull %6, ptr noundef null, ptr noundef nonnull @_ZN5boost7context6detail12fiber_unwindENS1_10transfer_tE)
          to label %_ZN5boost7context5fiberaSEOS1_.exit.i unwind label %9, !noalias !180

9:                                                ; preds = %7
  %10 = landingpad { ptr, i32 }
          catch ptr null
  %11 = extractvalue { ptr, i32 } %10, 0
  call void @__clang_call_terminate(ptr %11) #32
  unreachable

_ZN5boost7context5fiberaSEOS1_.exit.i:            ; preds = %7, %5, %2
  %12 = getelementptr inbounds nuw i8, ptr %.sroa.5.0.copyload, i64 8
  %13 = load i8, ptr %12, align 8, !tbaa !67, !range !69, !noalias !180, !noundef !70
  %14 = trunc nuw i8 %13 to i1
  br i1 %14, label %16, label %15

15:                                               ; preds = %_ZN5boost7context5fiberaSEOS1_.exit.i
  invoke void @_ZSt20__throw_system_errori(i32 noundef 1) #35
          to label %.noexc unwind label %25

.noexc:                                           ; preds = %15
  unreachable

16:                                               ; preds = %_ZN5boost7context5fiberaSEOS1_.exit.i
  %17 = load ptr, ptr %.sroa.5.0.copyload, align 8, !tbaa !65, !noalias !180
  %.not.i2.i = icmp eq ptr %17, null
  br i1 %.not.i2.i, label %"_ZZN5boost6fibers7context6resumeERSt11unique_lockINS0_6detail13spinlock_ttasEEENK3$_0clEONS_7context5fiberE.exit", label %18

18:                                               ; preds = %16
  store atomic i32 1, ptr %17 release, align 4, !noalias !180
  store i8 0, ptr %12, align 8, !tbaa !67, !noalias !180
  br label %"_ZZN5boost6fibers7context6resumeERSt11unique_lockINS0_6detail13spinlock_ttasEEENK3$_0clEONS_7context5fiberE.exit"

"_ZZN5boost6fibers7context6resumeERSt11unique_lockINS0_6detail13spinlock_ttasEEENK3$_0clEONS_7context5fiberE.exit": ; preds = %18, %16
  %19 = load ptr, ptr %3, align 8, !tbaa !13
  %.not.i = icmp eq ptr %19, null
  br i1 %.not.i, label %_ZN5boost7context5fiberD2Ev.exit5, label %20, !prof !55

20:                                               ; preds = %"_ZZN5boost6fibers7context6resumeERSt11unique_lockINS0_6detail13spinlock_ttasEEENK3$_0clEONS_7context5fiberE.exit"
  store ptr null, ptr %3, align 8, !tbaa !13
  %21 = invoke { ptr, ptr } @ontop_fcontext(ptr noundef nonnull %19, ptr noundef null, ptr noundef nonnull @_ZN5boost7context6detail12fiber_unwindENS1_10transfer_tE)
          to label %_ZN5boost7context5fiberD2Ev.exit5 unwind label %22

22:                                               ; preds = %20
  %23 = landingpad { ptr, i32 }
          catch ptr null
  %24 = extractvalue { ptr, i32 } %23, 0
  call void @__clang_call_terminate(ptr %24) #32
  unreachable

_ZN5boost7context5fiberD2Ev.exit5:                ; preds = %20, %"_ZZN5boost6fibers7context6resumeERSt11unique_lockINS0_6detail13spinlock_ttasEEENK3$_0clEONS_7context5fiberE.exit"
  call void @llvm.lifetime.end.p0(i64 8, ptr nonnull %3) #8
  ret { ptr, ptr } zeroinitializer

25:                                               ; preds = %15
  %26 = landingpad { ptr, i32 }
          cleanup
  call void @_ZN5boost7context5fiberD2Ev(ptr noundef nonnull align 8 dereferenceable(8) %3) #8
  call void @llvm.lifetime.end.p0(i64 8, ptr nonnull %3) #8
  resume { ptr, i32 } %26
}